; ModuleID = '28/776.c'
source_filename = "28/776.c"
target datalayout = "e-m:e-p270:32:32-p271:32:32-p272:64:64-i64:64-f80:128-n8:16:32:64-S128"
target triple = "x86_64-pc-linux-gnu"

@.str = private unnamed_addr constant [3 x i8] c"%d\00", align 1
@.str.1 = private unnamed_addr constant [4 x i8] c"%d,\00", align 1

; Function Attrs: noinline nounwind uwtable
define dso_local i32 @main() #0 {
  %1 = alloca i32, align 4
  %2 = alloca i32, align 4
  %3 = alloca i32, align 4
  %4 = alloca i32, align 4
  %5 = alloca i8*, align 8
  %6 = alloca i8*, align 8
  store i32 0, i32* %1, align 4
  %7 = call noalias i8* @malloc(i64 1000) #4
  store i8* %7, i8** %5, align 8
  %8 = load i8*, i8** %5, align 8
  %9 = call i32 (i8*, ...) bitcast (i32 (...)* @gets to i32 (i8*, ...)*)(i8* %8)
  %10 = load i8*, i8** %5, align 8
  store i8* %10, i8** %6, align 8
  %11 = load i8*, i8** %5, align 8
  %12 = call i64 @strlen(i8* %11) #5
  %13 = trunc i64 %12 to i32
  store i32 %13, i32* %4, align 4
  %14 = load i8*, i8** %5, align 8
  %15 = load i32, i32* %4, align 4
  %16 = sext i32 %15 to i64
  %17 = getelementptr inbounds i8, i8* %14, i64 %16
  store i8 32, i8* %17, align 1
  store i32 0, i32* %3, align 4
  store i32 0, i32* %2, align 4
  br label %18

18:                                               ; preds = %62, %0
  %19 = load i32, i32* %2, align 4
  %20 = load i32, i32* %4, align 4
  %21 = icmp sle i32 %19, %20
  br i1 %21, label %22, label %65

22:                                               ; preds = %18
  %23 = load i8*, i8** %6, align 8
  %24 = load i32, i32* %2, align 4
  %25 = sext i32 %24 to i64
  %26 = getelementptr inbounds i8, i8* %23, i64 %25
  %27 = load i8, i8* %26, align 1
  %28 = sext i8 %27 to i32
  %29 = icmp eq i32 %28, 32
  br i1 %29, label %30, label %50

30:                                               ; preds = %22
  %31 = load i8*, i8** %6, align 8
  %32 = load i32, i32* %2, align 4
  %33 = sext i32 %32 to i64
  %34 = getelementptr inbounds i8, i8* %31, i64 %33
  %35 = getelementptr inbounds i8, i8* %34, i64 -1
  %36 = load i8, i8* %35, align 1
  %37 = sext i8 %36 to i32
  %38 = icmp ne i32 %37, 32
  br i1 %38, label %39, label %50

39:                                               ; preds = %30
  %40 = load i32, i32* %2, align 4
  %41 = load i32, i32* %4, align 4
  %42 = icmp eq i32 %40, %41
  br i1 %42, label %43, label %46

43:                                               ; preds = %39
  %44 = load i32, i32* %3, align 4
  %45 = call i32 (i8*, ...) @printf(i8* getelementptr inbounds ([3 x i8], [3 x i8]* @.str, i64 0, i64 0), i32 %44)
  store i32 0, i32* %3, align 4
  br label %49

46:                                               ; preds = %39
  %47 = load i32, i32* %3, align 4
  %48 = call i32 (i8*, ...) @printf(i8* getelementptr inbounds ([4 x i8], [4 x i8]* @.str.1, i64 0, i64 0), i32 %47)
  store i32 0, i32* %3, align 4
  br label %49

49:                                               ; preds = %46, %43
  br label %50

50:                                               ; preds = %49, %30, %22
  %51 = load i8*, i8** %6, align 8
  %52 = load i32, i32* %2, align 4
  %53 = sext i32 %52 to i64
  %54 = getelementptr inbounds i8, i8* %51, i64 %53
  %55 = load i8, i8* %54, align 1
  %56 = sext i8 %55 to i32
  %57 = icmp ne i32 %56, 32
  br i1 %57, label %58, label %61

58:                                               ; preds = %50
  %59 = load i32, i32* %3, align 4
  %60 = add nsw i32 %59, 1
  store i32 %60, i32* %3, align 4
  br label %61

61:                                               ; preds = %58, %50
  br label %62

62:                                               ; preds = %61
  %63 = load i32, i32* %2, align 4
  %64 = add nsw i32 %63, 1
  store i32 %64, i32* %2, align 4
  br label %18

65:                                               ; preds = %18
  %66 = load i32, i32* %1, align 4
  ret i32 %66
}

; Function Attrs: nounwind
declare dso_local noalias i8* @malloc(i64) #1

declare dso_local i32 @gets(...) #2

; Function Attrs: nounwind readonly
declare dso_local i64 @strlen(i8*) #3

declare dso_local i32 @printf(i8*, ...) #2


!llvm.module.flags = !{!0}
!llvm.ident = !{!1}

!0 = !{i32 1, !"wchar_size", i32 4}
!1 = !{!"clang version 10.0.0-4ubuntu1 "}
