; ModuleID = 'source-C-CXX/27/776.c'
source_filename = "source-C-CXX/27/776.c"
target datalayout = "e-m:e-p270:32:32-p271:32:32-p272:64:64-i64:64-f80:128-n8:16:32:64-S128"
target triple = "x86_64-pc-linux-gnu"

@.str = private unnamed_addr constant [3 x i8] c"%d\00", align 1
@.str.1 = private unnamed_addr constant [4 x i8] c"%d,\00", align 1

; Function Attrs: nounwind sspstrong uwtable
define dso_local i32 @main() local_unnamed_addr #0 {
  %1 = tail call noalias align 16 dereferenceable_or_null(1000) i8* @malloc(i64 1000) #5
  %2 = tail call i32 (i8*, ...) bitcast (i32 (...)* @gets to i32 (i8*, ...)*)(i8* %1) #5
  %3 = tail call i64 @strlen(i8* noundef nonnull dereferenceable(1) %1) #6
  %4 = trunc i64 %3 to i32
  %5 = shl i64 %3, 32
  %6 = ashr exact i64 %5, 32
  %7 = getelementptr inbounds i8, i8* %1, i64 %6
  store i8 32, i8* %7, align 1, !tbaa !5
  %8 = icmp slt i32 %4, 0
  br i1 %8, label %35, label %9

9:                                                ; preds = %0
  %10 = and i64 %3, 4294967295
  %11 = add i64 %3, 1
  %12 = and i64 %11, 4294967295
  br label %13

13:                                               ; preds = %9, %27
  %14 = phi i64 [ 0, %9 ], [ %33, %27 ]
  %15 = phi i32 [ 0, %9 ], [ %32, %27 ]
  %16 = getelementptr inbounds i8, i8* %1, i64 %14
  %17 = load i8, i8* %16, align 1, !tbaa !5
  %18 = icmp eq i8 %17, 32
  br i1 %18, label %19, label %27

19:                                               ; preds = %13
  %20 = getelementptr inbounds i8, i8* %16, i64 -1
  %21 = load i8, i8* %20, align 1, !tbaa !5
  %22 = icmp eq i8 %21, 32
  br i1 %22, label %27, label %23

23:                                               ; preds = %19
  %24 = icmp eq i64 %14, %10
  %25 = select i1 %24, i8* getelementptr inbounds ([3 x i8], [3 x i8]* @.str, i64 0, i64 0), i8* getelementptr inbounds ([4 x i8], [4 x i8]* @.str.1, i64 0, i64 0)
  %26 = tail call i32 (i8*, ...) @printf(i8* nonnull dereferenceable(1) %25, i32 %15)
  br label %27

27:                                               ; preds = %23, %19, %13
  %28 = phi i32 [ %15, %19 ], [ %15, %13 ], [ 0, %23 ]
  %29 = load i8, i8* %16, align 1, !tbaa !5
  %30 = icmp ne i8 %29, 32
  %31 = zext i1 %30 to i32
  %32 = add nsw i32 %28, %31
  %33 = add nuw nsw i64 %14, 1
  %34 = icmp eq i64 %33, %12
  br i1 %34, label %35, label %13, !llvm.loop !8

35:                                               ; preds = %27, %0
  ret i32 0
}

; Function Attrs: inaccessiblememonly mustprogress nofree nounwind willreturn
declare noalias noundef align 16 i8* @malloc(i64 noundef) local_unnamed_addr #1

declare i32 @gets(...) local_unnamed_addr #2

; Function Attrs: argmemonly mustprogress nofree nounwind readonly willreturn
declare i64 @strlen(i8* nocapture) local_unnamed_addr #3

; Function Attrs: nofree nounwind
declare noundef i32 @printf(i8* nocapture noundef readonly, ...) local_unnamed_addr #4


!llvm.module.flags = !{!0, !1, !2, !3}
!llvm.ident = !{!4}

!0 = !{i32 1, !"wchar_size", i32 4}
!1 = !{i32 7, !"PIC Level", i32 2}
!2 = !{i32 7, !"PIE Level", i32 2}
!3 = !{i32 7, !"uwtable", i32 1}
!4 = !{!"clang version 13.0.0"}
!5 = !{!6, !6, i64 0}
!6 = !{!"omnipotent char", !7, i64 0}
!7 = !{!"Simple C/C++ TBAA"}
!8 = distinct !{!8, !9}
!9 = !{!"llvm.loop.mustprogress"}
